target datalayout = "e-m:e-p270:32:32-p271:32:32-p272:64:64-i64:64-i128:128-f80:128-n8:16:32:64-S128"
target triple = "x86_64-pc-linux-gnu"

@.str.5 = private unnamed_addr constant [22 x i8] c"testfunc_iii(%p, %p)\0A\00", align 1

; Function Attrs: nounwind uwtable
define i32 @testfunc_iii(i32 noundef %0, i32 noundef %1) #0 {
  %3 = alloca i32, align 4
  %4 = alloca i32, align 4
  %5 = alloca i32, align 4
  store i32 %0, ptr %3, align 4, !tbaa !3
  store i32 %1, ptr %4, align 4, !tbaa !3
  call void @llvm.lifetime.start.p0(i64 4, ptr %5) #12
  %6 = load i32, ptr %3, align 4, !tbaa !3
  %7 = load i32, ptr %4, align 4, !tbaa !3
  %8 = mul i32 %6, %7
  store i32 %8, ptr %5, align 4, !tbaa !3
  %9 = call i32 (ptr, ...) @printf(ptr noundef @.str.5, ptr noundef %3, ptr noundef %4)
  %10 = load i32, ptr %5, align 4, !tbaa !3
  call void @llvm.lifetime.end.p0(i64 4, ptr %5) #12
  ret i32 %10
}