; Function Attrs: nofree nounwind uwtable
define noundef i32 @testfunc_iii(i32 noundef %0, i32 noundef %1) local_unnamed_addr #13 {
  %3 = alloca i32, align 4
  %4 = alloca i32, align 4
  store i32 %0, ptr %3, align 4, !tbaa !10
  store i32 %1, ptr %4, align 4, !tbaa !10
  %5 = mul i32 %1, %0
  %6 = call i32 (ptr, ...) @printf(ptr noundef nonnull dereferenceable(1) @.str.5, ptr noundef nonnull %3, ptr noundef nonnull %4)
  ret i32 %5
}